; Function Attrs: mustprogress uwtable
define hidden { i64, i64 } @_ZN10duckdb_re28Compiler4CopyENS_4FragE(ptr noundef nonnull writeonly align 8 captures(none) dereferenceable(228) initializes((104, 105)) %0, i64 %1, i64 %2) unnamed_addr #0 align 2 personality ptr @__gxx_personality_v0 {
  %4 = alloca %"struct.duckdb_re2::Frag", align 8
  %5 = alloca %class.LogMessage, align 8
  %6 = getelementptr inbounds nuw i8, ptr %0, i64 104
  store i8 1, ptr %6, align 8, !tbaa !49
  call void @llvm.lifetime.start.p0(i64 384, ptr nonnull %5) #24
  store i8 0, ptr %5, align 8, !tbaa !88
  %7 = getelementptr inbounds nuw i8, ptr %5, i64 8
  call void @_ZNSt7__cxx1119basic_ostringstreamIcSt11char_traitsIcESaIcEEC1Ev(ptr noundef nonnull align 8 dereferenceable(112) %7)
  %8 = invoke noundef nonnull align 8 dereferenceable(8) ptr @_ZSt16__ostream_insertIcSt11char_traitsIcEERSt13basic_ostreamIT_T0_ES6_PKS3_l(ptr noundef nonnull align 8 dereferenceable(8) %7, ptr noundef nonnull @.str.2, i64 noundef 22)
          to label %_ZStlsISt11char_traitsIcEERSt13basic_ostreamIcT_ES5_PKc.exit unwind label %24

_ZStlsISt11char_traitsIcEERSt13basic_ostreamIcT_ES5_PKc.exit: ; preds = %3
  %9 = load ptr, ptr @_ZTTNSt7__cxx1119basic_ostringstreamIcSt11char_traitsIcESaIcEEE, align 8
  store ptr %9, ptr %7, align 8, !tbaa !3
  %10 = load ptr, ptr getelementptr inbounds nuw (i8, ptr @_ZTTNSt7__cxx1119basic_ostringstreamIcSt11char_traitsIcESaIcEEE, i64 24), align 8
  %11 = getelementptr i8, ptr %9, i64 -24
  %12 = load i64, ptr %11, align 8
  %13 = getelementptr inbounds i8, ptr %7, i64 %12
  store ptr %10, ptr %13, align 8, !tbaa !3
  %14 = getelementptr inbounds nuw i8, ptr %5, i64 16
  store ptr getelementptr inbounds nuw inrange(-16, 112) (i8, ptr @_ZTVNSt7__cxx1115basic_stringbufIcSt11char_traitsIcESaIcEEE, i64 16), ptr %14, align 8, !tbaa !3
  %15 = getelementptr inbounds nuw i8, ptr %5, i64 88
  %16 = load ptr, ptr %15, align 8, !tbaa !100
  %17 = getelementptr inbounds nuw i8, ptr %5, i64 104
  %18 = icmp eq ptr %16, %17
  br i1 %18, label %_ZNKSt7__cxx1112basic_stringIcSt11char_traitsIcESaIcEE11_M_is_localEv.exit.thread.i.i.i.i.i.i, label %_ZNKSt7__cxx1112basic_stringIcSt11char_traitsIcESaIcEE11_M_is_localEv.exit.i.i.i.i.i.i

_ZNKSt7__cxx1112basic_stringIcSt11char_traitsIcESaIcEE11_M_is_localEv.exit.thread.i.i.i.i.i.i: ; preds = %_ZStlsISt11char_traitsIcEERSt13basic_ostreamIcT_ES5_PKc.exit
  %19 = getelementptr inbounds nuw i8, ptr %5, i64 96
  %20 = load i64, ptr %19, align 8, !tbaa !101
  %21 = icmp ult i64 %20, 16
  call void @llvm.assume(i1 %21)
  br label %_ZN10LogMessageD2Ev.exit

_ZNKSt7__cxx1112basic_stringIcSt11char_traitsIcESaIcEE11_M_is_localEv.exit.i.i.i.i.i.i: ; preds = %_ZStlsISt11char_traitsIcEERSt13basic_ostreamIcT_ES5_PKc.exit
  call void @_ZdlPv(ptr noundef %16) #23
  br label %_ZN10LogMessageD2Ev.exit

_ZN10LogMessageD2Ev.exit:                         ; preds = %_ZNKSt7__cxx1112basic_stringIcSt11char_traitsIcESaIcEE11_M_is_localEv.exit.thread.i.i.i.i.i.i, %_ZNKSt7__cxx1112basic_stringIcSt11char_traitsIcESaIcEE11_M_is_localEv.exit.i.i.i.i.i.i
  store ptr getelementptr inbounds nuw inrange(-16, 112) (i8, ptr @_ZTVSt15basic_streambufIcSt11char_traitsIcEE, i64 16), ptr %14, align 8, !tbaa !3
  %22 = getelementptr inbounds nuw i8, ptr %5, i64 72
  call void @_ZNSt6localeD1Ev(ptr noundef nonnull align 8 dereferenceable(8) %22) #24
  %23 = getelementptr inbounds nuw i8, ptr %5, i64 120
  call void @_ZNSt8ios_baseD2Ev(ptr noundef nonnull align 8 dereferenceable(264) %23) #24
  call void @llvm.lifetime.end.p0(i64 384, ptr nonnull %5) #24
  call void @llvm.lifetime.start.p0(i64 16, ptr nonnull %4)
  store i32 0, ptr %4, align 8, !tbaa !71
  %.4..4..4..4..4..sroa_idx = getelementptr inbounds nuw i8, ptr %4, i64 4
  store i64 0, ptr %.4..4..4..4..4..sroa_idx, align 4
  %.12..12..12..12..12..sroa_idx = getelementptr inbounds nuw i8, ptr %4, i64 12
  store i8 0, ptr %.12..12..12..12..12..sroa_idx, align 4, !tbaa !72
  %.0..0..0..0..0..fca.0.load.i = load i64, ptr %4, align 8
  %.fca.0.insert.i = insertvalue { i64, i64 } poison, i64 %.0..0..0..0..0..fca.0.load.i, 0
  %.8..8..8..8..8..fca.1.gep.sroa_idx = getelementptr inbounds nuw i8, ptr %4, i64 8
  %.8..8..8..8..8..fca.1.load.i = load i64, ptr %.8..8..8..8..8..fca.1.gep.sroa_idx, align 8
  call void @llvm.lifetime.end.p0(i64 16, ptr nonnull %4)
  %.sroa.24.8.insert.ext = and i64 %.8..8..8..8..8..fca.1.load.i, 1099511627775
  %.fca.1.insert = insertvalue { i64, i64 } %.fca.0.insert.i, i64 %.sroa.24.8.insert.ext, 1
  ret { i64, i64 } %.fca.1.insert

24:                                               ; preds = %3
  %25 = landingpad { ptr, i32 }
          cleanup
  call void @_ZN10LogMessageD2Ev(ptr noundef nonnull align 8 dereferenceable(384) %5) #24
  call void @llvm.lifetime.end.p0(i64 384, ptr nonnull %5) #24
  resume { ptr, i32 } %25
}